target datalayout = "e-m:e-p270:32:32-p271:32:32-p272:64:64-i64:64-i128:128-f80:128-n8:16:32:64-S128"
target triple = "x86_64-pc-linux-gnu"

@.str.72 = private unnamed_addr constant [27 x i8] c"could not set '%s' to '%s'\00", align 1
@.str.73 = private unnamed_addr constant [21 x i8] c"could not unset '%s'\00", align 1

; Function Attrs: nounwind uwtable
define dso_local void @repo_config_set_multivar_in_file(ptr noundef %0, ptr noundef %1, ptr noundef %2, ptr noundef %3, ptr noundef %4, i32 noundef %5) #0 {
  %7 = alloca ptr, align 8
  %8 = alloca ptr, align 8
  %9 = alloca ptr, align 8
  %10 = alloca ptr, align 8
  %11 = alloca ptr, align 8
  %12 = alloca i32, align 4
  store ptr %0, ptr %7, align 8, !tbaa !65
  store ptr %1, ptr %8, align 8, !tbaa !4
  store ptr %2, ptr %9, align 8, !tbaa !4
  store ptr %3, ptr %10, align 8, !tbaa !4
  store ptr %4, ptr %11, align 8, !tbaa !4
  store i32 %5, ptr %12, align 4, !tbaa !13
  %13 = load ptr, ptr %7, align 8, !tbaa !65
  %14 = load ptr, ptr %8, align 8, !tbaa !4
  %15 = load ptr, ptr %9, align 8, !tbaa !4
  %16 = load ptr, ptr %10, align 8, !tbaa !4
  %17 = load ptr, ptr %11, align 8, !tbaa !4
  %18 = load i32, ptr %12, align 4, !tbaa !13
  %19 = call i32 @repo_config_set_multivar_in_file_gently(ptr noundef %13, ptr noundef %14, ptr noundef %15, ptr noundef %16, ptr noundef %17, ptr noundef null, i32 noundef %18)
  %20 = icmp ne i32 %19, 0
  br i1 %20, label %22, label %21

21:                                               ; preds = %6
  ret void

22:                                               ; preds = %6
  %23 = load ptr, ptr %10, align 8, !tbaa !4
  %24 = icmp ne ptr %23, null
  br i1 %24, label %25, label %29

25:                                               ; preds = %22
  %26 = call ptr @_(ptr noundef @.str.72)
  %27 = load ptr, ptr %9, align 8, !tbaa !4
  %28 = load ptr, ptr %10, align 8, !tbaa !4
  call void (ptr, ...) @die(ptr noundef %26, ptr noundef %27, ptr noundef %28) #15
  unreachable

29:                                               ; preds = %22
  %30 = call ptr @_(ptr noundef @.str.73)
  %31 = load ptr, ptr %9, align 8, !tbaa !4
  call void (ptr, ...) @die(ptr noundef %30, ptr noundef %31) #15
  unreachable
}