; Function Attrs: nounwind uwtable
define dso_local void @repo_config_set_multivar_in_file(ptr noundef %0, ptr noundef %1, ptr noundef %2, ptr noundef %3, ptr noundef %4, i32 noundef %5) local_unnamed_addr #0 {
  %7 = tail call i32 @repo_config_set_multivar_in_file_gently(ptr noundef %0, ptr noundef %1, ptr noundef %2, ptr noundef %3, ptr noundef %4, ptr noundef null, i32 noundef %5)
  %.not = icmp eq i32 %7, 0
  br i1 %.not, label %8, label %9

8:                                                ; preds = %6
  ret void

9:                                                ; preds = %6
  %.not9 = icmp eq ptr %3, null
  br i1 %.not9, label %12, label %10

10:                                               ; preds = %9
  %11 = tail call fastcc ptr @_(ptr noundef nonnull @.str.72)
  tail call void (ptr, ...) @die(ptr noundef %11, ptr noundef %2, ptr noundef nonnull %3) #31
  unreachable

12:                                               ; preds = %9
  %13 = tail call fastcc ptr @_(ptr noundef nonnull @.str.73)
  tail call void (ptr, ...) @die(ptr noundef %13, ptr noundef %2) #31
  unreachable
}